; Function Attrs: mustprogress nounwind uwtable
define dso_local void @_ZN5clang6Parser23ParseLexedAttributeListERNS0_18LateParsedAttrListEPNS_4DeclEbb(ptr noundef nonnull align 8 dereferenceable(2936) %0, ptr noundef nonnull align 8 dereferenceable(34) %1, ptr noundef %2, i1 noundef zeroext %3, i1 noundef zeroext %4) local_unnamed_addr #0 align 2 {
  %6 = tail call noundef i64 @_ZNK4llvm15SmallVectorBaseIjE4sizeEv(ptr noundef nonnull align 8 dereferenceable(16) %1) #14
  %7 = and i64 %6, 4294967295
  %.not18 = icmp eq i64 %7, 0
  br i1 %.not18, label %._crit_edge, label %.lr.ph

.lr.ph:                                           ; preds = %5
  %.not = icmp eq ptr %2, null
  %8 = ptrtoint ptr %2 to i64
  %wide.trip.count24 = and i64 %6, 4294967295
  br i1 %.not, label %.lr.ph.split.us, label %.lr.ph.split

.lr.ph.split.us:                                  ; preds = %.lr.ph, %20
  %indvars.iv21 = phi i64 [ %indvars.iv.next22, %20 ], [ 0, %.lr.ph ]
  %9 = load ptr, ptr %1, align 8
  %10 = getelementptr inbounds ptr, ptr %9, i64 %indvars.iv21
  %11 = load ptr, ptr %10, align 8
  tail call void @_ZN5clang6Parser19ParseLexedAttributeERNS0_19LateParsedAttributeEbb(ptr noundef nonnull align 8 dereferenceable(2936) %0, ptr noundef nonnull align 8 dereferenceable(184) %11, i1 noundef zeroext %3, i1 noundef zeroext %4)
  %12 = load ptr, ptr %1, align 8
  %13 = getelementptr inbounds ptr, ptr %12, i64 %indvars.iv21
  %14 = load ptr, ptr %13, align 8
  %15 = icmp eq ptr %14, null
  br i1 %15, label %20, label %16

16:                                               ; preds = %.lr.ph.split.us
  %17 = load ptr, ptr %14, align 8
  %18 = getelementptr inbounds i8, ptr %17, i64 8
  %19 = load ptr, ptr %18, align 8
  tail call void %19(ptr noundef nonnull align 8 dereferenceable(184) %14) #14
  br label %20

20:                                               ; preds = %16, %.lr.ph.split.us
  %indvars.iv.next22 = add nuw nsw i64 %indvars.iv21, 1
  %exitcond25.not = icmp eq i64 %indvars.iv.next22, %wide.trip.count24
  br i1 %exitcond25.not, label %._crit_edge, label %.lr.ph.split.us, !llvm.loop !46

.lr.ph.split:                                     ; preds = %.lr.ph, %46
  %indvars.iv = phi i64 [ %indvars.iv.next, %46 ], [ 0, %.lr.ph ]
  %21 = load ptr, ptr %1, align 8
  %22 = getelementptr inbounds ptr, ptr %21, i64 %indvars.iv
  %23 = load ptr, ptr %22, align 8
  %24 = getelementptr inbounds nuw i8, ptr %23, i64 152
  %25 = tail call noundef i64 @_ZNK4llvm15SmallVectorBaseIjE4sizeEv(ptr noundef nonnull align 8 dereferenceable(16) %24) #14
  %26 = add i64 %25, 1
  %27 = tail call noundef i64 @_ZNK4llvm15SmallVectorBaseIjE8capacityEv(ptr noundef nonnull align 8 dereferenceable(16) %24) #14
  %.not.i.i.i.i = icmp ugt i64 %26, %27
  br i1 %.not.i.i.i.i, label %28, label %_ZN5clang6Parser19LateParsedAttribute7addDeclEPNS_4DeclE.exit

28:                                               ; preds = %.lr.ph.split
  %29 = getelementptr inbounds i8, ptr %23, i64 168
  tail call void @_ZN4llvm15SmallVectorBaseIjE8grow_podEPvmm(ptr noundef nonnull align 8 dereferenceable(16) %24, ptr noundef nonnull %29, i64 noundef %26, i64 noundef 8) #14
  br label %_ZN5clang6Parser19LateParsedAttribute7addDeclEPNS_4DeclE.exit

_ZN5clang6Parser19LateParsedAttribute7addDeclEPNS_4DeclE.exit: ; preds = %.lr.ph.split, %28
  %30 = load ptr, ptr %24, align 8
  %31 = tail call noundef i64 @_ZNK4llvm15SmallVectorBaseIjE4sizeEv(ptr noundef nonnull align 8 dereferenceable(16) %24) #14
  %32 = getelementptr inbounds ptr, ptr %30, i64 %31
  store i64 %8, ptr %32, align 1
  %33 = tail call noundef i64 @_ZNK4llvm15SmallVectorBaseIjE4sizeEv(ptr noundef nonnull align 8 dereferenceable(16) %24) #14
  %34 = add i64 %33, 1
  tail call void @_ZN4llvm15SmallVectorBaseIjE8set_sizeEm(ptr noundef nonnull align 8 dereferenceable(16) %24, i64 noundef %34) #14
  %35 = load ptr, ptr %1, align 8
  %36 = getelementptr inbounds ptr, ptr %35, i64 %indvars.iv
  %37 = load ptr, ptr %36, align 8
  tail call void @_ZN5clang6Parser19ParseLexedAttributeERNS0_19LateParsedAttributeEbb(ptr noundef nonnull align 8 dereferenceable(2936) %0, ptr noundef nonnull align 8 dereferenceable(184) %37, i1 noundef zeroext %3, i1 noundef zeroext %4)
  %38 = load ptr, ptr %1, align 8
  %39 = getelementptr inbounds ptr, ptr %38, i64 %indvars.iv
  %40 = load ptr, ptr %39, align 8
  %41 = icmp eq ptr %40, null
  br i1 %41, label %46, label %42

42:                                               ; preds = %_ZN5clang6Parser19LateParsedAttribute7addDeclEPNS_4DeclE.exit
  %43 = load ptr, ptr %40, align 8
  %44 = getelementptr inbounds i8, ptr %43, i64 8
  %45 = load ptr, ptr %44, align 8
  tail call void %45(ptr noundef nonnull align 8 dereferenceable(184) %40) #14
  br label %46

46:                                               ; preds = %_ZN5clang6Parser19LateParsedAttribute7addDeclEPNS_4DeclE.exit, %42
  %indvars.iv.next = add nuw nsw i64 %indvars.iv, 1
  %exitcond.not = icmp eq i64 %indvars.iv.next, %wide.trip.count24
  br i1 %exitcond.not, label %._crit_edge, label %.lr.ph.split, !llvm.loop !46

._crit_edge:                                      ; preds = %46, %20, %5
  %47 = tail call noundef i64 @_ZNK4llvm15SmallVectorBaseIjE4sizeEv(ptr noundef nonnull align 8 dereferenceable(16) %1) #14
  %48 = getelementptr inbounds nuw i8, ptr %1, i64 8
  store i32 0, ptr %48, align 8
  ret void
}